; ModuleID = '55/422.c'
source_filename = "55/422.c"
target datalayout = "e-m:e-p270:32:32-p271:32:32-p272:64:64-i64:64-f80:128-n8:16:32:64-S128"
target triple = "x86_64-pc-linux-gnu"

@.str = private unnamed_addr constant [3 x i8] c"%d\00", align 1
@.str.1 = private unnamed_addr constant [3 x i8] c"%c\00", align 1

; Function Attrs: noinline nounwind uwtable
define dso_local void @main() #0 {
  %1 = alloca [100 x i8], align 16
  %2 = alloca i32, align 4
  %3 = alloca i32, align 4
  %4 = alloca i64, align 8
  %5 = alloca i32, align 4
  %6 = alloca i32, align 4
  %7 = alloca [100 x i8], align 16
  %8 = getelementptr inbounds [100 x i8], [100 x i8]* %1, i64 0, i64 0
  %9 = call i32 (i8*, ...) bitcast (i32 (...)* @gets to i32 (i8*, ...)*)(i8* %8)
  store i32 0, i32* %2, align 4
  store i32 0, i32* %3, align 4
  br label %10

10:                                               ; preds = %17, %0
  %11 = load i32, i32* %2, align 4
  %12 = sext i32 %11 to i64
  %13 = getelementptr inbounds [100 x i8], [100 x i8]* %1, i64 0, i64 %12
  %14 = load i8, i8* %13, align 1
  %15 = sext i8 %14 to i32
  %16 = icmp ne i32 %15, 32
  br i1 %16, label %17, label %28

17:                                               ; preds = %10
  %18 = load i32, i32* %3, align 4
  %19 = mul nsw i32 %18, 10
  %20 = load i32, i32* %2, align 4
  %21 = add nsw i32 %20, 1
  store i32 %21, i32* %2, align 4
  %22 = sext i32 %20 to i64
  %23 = getelementptr inbounds [100 x i8], [100 x i8]* %1, i64 0, i64 %22
  %24 = load i8, i8* %23, align 1
  %25 = call signext i8 @intonumber(i8 signext %24)
  %26 = sext i8 %25 to i32
  %27 = add nsw i32 %19, %26
  store i32 %27, i32* %3, align 4
  br label %10

28:                                               ; preds = %10
  br label %29

29:                                               ; preds = %36, %28
  %30 = load i32, i32* %2, align 4
  %31 = sext i32 %30 to i64
  %32 = getelementptr inbounds [100 x i8], [100 x i8]* %1, i64 0, i64 %31
  %33 = load i8, i8* %32, align 1
  %34 = sext i8 %33 to i32
  %35 = icmp eq i32 %34, 32
  br i1 %35, label %36, label %39

36:                                               ; preds = %29
  %37 = load i32, i32* %2, align 4
  %38 = add nsw i32 %37, 1
  store i32 %38, i32* %2, align 4
  br label %29

39:                                               ; preds = %29
  store i64 0, i64* %4, align 8
  br label %40

40:                                               ; preds = %47, %39
  %41 = load i32, i32* %2, align 4
  %42 = sext i32 %41 to i64
  %43 = getelementptr inbounds [100 x i8], [100 x i8]* %1, i64 0, i64 %42
  %44 = load i8, i8* %43, align 1
  %45 = sext i8 %44 to i32
  %46 = icmp ne i32 %45, 32
  br i1 %46, label %47, label %60

47:                                               ; preds = %40
  %48 = load i64, i64* %4, align 8
  %49 = load i32, i32* %3, align 4
  %50 = sext i32 %49 to i64
  %51 = mul i64 %48, %50
  %52 = load i32, i32* %2, align 4
  %53 = add nsw i32 %52, 1
  store i32 %53, i32* %2, align 4
  %54 = sext i32 %52 to i64
  %55 = getelementptr inbounds [100 x i8], [100 x i8]* %1, i64 0, i64 %54
  %56 = load i8, i8* %55, align 1
  %57 = call signext i8 @intonumber(i8 signext %56)
  %58 = sext i8 %57 to i64
  %59 = add i64 %51, %58
  store i64 %59, i64* %4, align 8
  br label %40

60:                                               ; preds = %40
  br label %61

61:                                               ; preds = %68, %60
  %62 = load i32, i32* %2, align 4
  %63 = sext i32 %62 to i64
  %64 = getelementptr inbounds [100 x i8], [100 x i8]* %1, i64 0, i64 %63
  %65 = load i8, i8* %64, align 1
  %66 = sext i8 %65 to i32
  %67 = icmp eq i32 %66, 32
  br i1 %67, label %68, label %71

68:                                               ; preds = %61
  %69 = load i32, i32* %2, align 4
  %70 = add nsw i32 %69, 1
  store i32 %70, i32* %2, align 4
  br label %61

71:                                               ; preds = %61
  store i32 0, i32* %5, align 4
  br label %72

72:                                               ; preds = %79, %71
  %73 = load i32, i32* %2, align 4
  %74 = sext i32 %73 to i64
  %75 = getelementptr inbounds [100 x i8], [100 x i8]* %1, i64 0, i64 %74
  %76 = load i8, i8* %75, align 1
  %77 = sext i8 %76 to i32
  %78 = icmp ne i32 %77, 0
  br i1 %78, label %79, label %90

79:                                               ; preds = %72
  %80 = load i32, i32* %5, align 4
  %81 = mul nsw i32 %80, 10
  %82 = load i32, i32* %2, align 4
  %83 = add nsw i32 %82, 1
  store i32 %83, i32* %2, align 4
  %84 = sext i32 %82 to i64
  %85 = getelementptr inbounds [100 x i8], [100 x i8]* %1, i64 0, i64 %84
  %86 = load i8, i8* %85, align 1
  %87 = call signext i8 @intonumber(i8 signext %86)
  %88 = sext i8 %87 to i32
  %89 = add nsw i32 %81, %88
  store i32 %89, i32* %5, align 4
  br label %72

90:                                               ; preds = %72
  store i32 0, i32* %6, align 4
  br label %91

91:                                               ; preds = %108, %90
  %92 = load i64, i64* %4, align 8
  %93 = icmp ugt i64 %92, 0
  br i1 %93, label %94, label %111

94:                                               ; preds = %91
  %95 = load i64, i64* %4, align 8
  %96 = load i32, i32* %5, align 4
  %97 = sext i32 %96 to i64
  %98 = urem i64 %95, %97
  %99 = trunc i64 %98 to i32
  %100 = call signext i8 @intochar(i32 %99)
  %101 = load i32, i32* %6, align 4
  %102 = sext i32 %101 to i64
  %103 = getelementptr inbounds [100 x i8], [100 x i8]* %7, i64 0, i64 %102
  store i8 %100, i8* %103, align 1
  %104 = load i64, i64* %4, align 8
  %105 = load i32, i32* %5, align 4
  %106 = sext i32 %105 to i64
  %107 = udiv i64 %104, %106
  store i64 %107, i64* %4, align 8
  br label %108

108:                                              ; preds = %94
  %109 = load i32, i32* %6, align 4
  %110 = add nsw i32 %109, 1
  store i32 %110, i32* %6, align 4
  br label %91

111:                                              ; preds = %91
  %112 = load i32, i32* %6, align 4
  %113 = icmp eq i32 %112, 0
  br i1 %113, label %114, label %116

114:                                              ; preds = %111
  %115 = call i32 (i8*, ...) @printf(i8* getelementptr inbounds ([3 x i8], [3 x i8]* @.str, i64 0, i64 0), i32 0)
  br label %116

116:                                              ; preds = %114, %111
  %117 = load i32, i32* %6, align 4
  %118 = add nsw i32 %117, -1
  store i32 %118, i32* %6, align 4
  br label %119

119:                                              ; preds = %129, %116
  %120 = load i32, i32* %6, align 4
  %121 = icmp sge i32 %120, 0
  br i1 %121, label %122, label %132

122:                                              ; preds = %119
  %123 = load i32, i32* %6, align 4
  %124 = sext i32 %123 to i64
  %125 = getelementptr inbounds [100 x i8], [100 x i8]* %7, i64 0, i64 %124
  %126 = load i8, i8* %125, align 1
  %127 = sext i8 %126 to i32
  %128 = call i32 (i8*, ...) @printf(i8* getelementptr inbounds ([3 x i8], [3 x i8]* @.str.1, i64 0, i64 0), i32 %127)
  br label %129

129:                                              ; preds = %122
  %130 = load i32, i32* %6, align 4
  %131 = add nsw i32 %130, -1
  store i32 %131, i32* %6, align 4
  br label %119

132:                                              ; preds = %119
  ret void
}

declare dso_local i32 @gets(...) #1

; Function Attrs: noinline nounwind uwtable
define dso_local signext i8 @intonumber(i8 signext %0) #0 {
  %2 = alloca i8, align 1
  store i8 %0, i8* %2, align 1
  %3 = load i8, i8* %2, align 1
  %4 = sext i8 %3 to i32
  %5 = icmp sge i32 %4, 97
  br i1 %5, label %6, label %15

6:                                                ; preds = %1
  %7 = load i8, i8* %2, align 1
  %8 = sext i8 %7 to i32
  %9 = icmp sle i32 %8, 122
  br i1 %9, label %10, label %15

10:                                               ; preds = %6
  %11 = load i8, i8* %2, align 1
  %12 = sext i8 %11 to i32
  %13 = sub nsw i32 %12, 87
  %14 = trunc i32 %13 to i8
  store i8 %14, i8* %2, align 1
  br label %43

15:                                               ; preds = %6, %1
  %16 = load i8, i8* %2, align 1
  %17 = sext i8 %16 to i32
  %18 = icmp sge i32 %17, 65
  br i1 %18, label %19, label %28

19:                                               ; preds = %15
  %20 = load i8, i8* %2, align 1
  %21 = sext i8 %20 to i32
  %22 = icmp sle i32 %21, 90
  br i1 %22, label %23, label %28

23:                                               ; preds = %19
  %24 = load i8, i8* %2, align 1
  %25 = sext i8 %24 to i32
  %26 = sub nsw i32 %25, 55
  %27 = trunc i32 %26 to i8
  store i8 %27, i8* %2, align 1
  br label %42

28:                                               ; preds = %19, %15
  %29 = load i8, i8* %2, align 1
  %30 = sext i8 %29 to i32
  %31 = icmp sge i32 %30, 48
  br i1 %31, label %32, label %41

32:                                               ; preds = %28
  %33 = load i8, i8* %2, align 1
  %34 = sext i8 %33 to i32
  %35 = icmp sle i32 %34, 57
  br i1 %35, label %36, label %41

36:                                               ; preds = %32
  %37 = load i8, i8* %2, align 1
  %38 = sext i8 %37 to i32
  %39 = sub nsw i32 %38, 48
  %40 = trunc i32 %39 to i8
  store i8 %40, i8* %2, align 1
  br label %41

41:                                               ; preds = %36, %32, %28
  br label %42

42:                                               ; preds = %41, %23
  br label %43

43:                                               ; preds = %42, %10
  %44 = load i8, i8* %2, align 1
  ret i8 %44
}

; Function Attrs: noinline nounwind uwtable
define dso_local signext i8 @intochar(i32 %0) #0 {
  %2 = alloca i32, align 4
  store i32 %0, i32* %2, align 4
  %3 = load i32, i32* %2, align 4
  %4 = icmp sge i32 %3, 0
  br i1 %4, label %5, label %11

5:                                                ; preds = %1
  %6 = load i32, i32* %2, align 4
  %7 = icmp sle i32 %6, 9
  br i1 %7, label %8, label %11

8:                                                ; preds = %5
  %9 = load i32, i32* %2, align 4
  %10 = add nsw i32 %9, 48
  store i32 %10, i32* %2, align 4
  br label %21

11:                                               ; preds = %5, %1
  %12 = load i32, i32* %2, align 4
  %13 = icmp sgt i32 %12, 9
  br i1 %13, label %14, label %20

14:                                               ; preds = %11
  %15 = load i32, i32* %2, align 4
  %16 = icmp sle i32 %15, 35
  br i1 %16, label %17, label %20

17:                                               ; preds = %14
  %18 = load i32, i32* %2, align 4
  %19 = add nsw i32 %18, 55
  store i32 %19, i32* %2, align 4
  br label %20

20:                                               ; preds = %17, %14, %11
  br label %21

21:                                               ; preds = %20, %8
  %22 = load i32, i32* %2, align 4
  %23 = trunc i32 %22 to i8
  ret i8 %23
}

declare dso_local i32 @printf(i8*, ...) #1


!llvm.module.flags = !{!0}
!llvm.ident = !{!1}

!0 = !{i32 1, !"wchar_size", i32 4}
!1 = !{!"clang version 10.0.0-4ubuntu1 "}
